target datalayout = "e-m:e-p270:32:32-p271:32:32-p272:64:64-i64:64-i128:128-f80:128-n8:16:32:64-S128"
target triple = "x86_64-pc-linux-gnu"

@id_call = internal global i64 0, align 8
@ossl_ssl_ex_ptr_idx = internal global i32 0, align 4
@id_i_renegotiation_cb = internal global i64 0, align 8
@id_i_context = internal global i64 0, align 8

; Function Attrs: inlinehint nounwind sspstrong willreturn memory(none) uwtable
define internal zeroext i1 @RB_NIL_P(i64 noundef %0) #9 {
  %2 = alloca i64, align 8
  store i64 %0, ptr %2, align 8, !tbaa !14
  %3 = load i64, ptr %2, align 8, !tbaa !14
  %4 = icmp eq i64 %3, 4
  ret i1 %4
}

; Function Attrs: nounwind sspstrong uwtable
define internal void @ssl_renegotiation_cb(ptr noundef %0) #0 {
  %2 = alloca ptr, align 8
  %3 = alloca i64, align 8
  %4 = alloca i64, align 8
  %5 = alloca i64, align 8
  %6 = alloca i32, align 4
  store ptr %0, ptr %2, align 8, !tbaa !10
  call void @llvm.lifetime.start.p0(i64 8, ptr %3) #20
  call void @llvm.lifetime.start.p0(i64 8, ptr %4) #20
  call void @llvm.lifetime.start.p0(i64 8, ptr %5) #20
  %7 = load ptr, ptr %2, align 8, !tbaa !10
  %8 = load i32, ptr @ossl_ssl_ex_ptr_idx, align 4, !tbaa !12
  %9 = call ptr @SSL_get_ex_data(ptr noundef %7, i32 noundef %8)
  %10 = ptrtoint ptr %9 to i64
  store i64 %10, ptr %3, align 8, !tbaa !14
  %11 = load i64, ptr %3, align 8, !tbaa !14
  %12 = load i64, ptr @id_i_context, align 8, !tbaa !14
  %13 = call i64 @rb_attr_get(i64 noundef %11, i64 noundef %12)
  store i64 %13, ptr %4, align 8, !tbaa !14
  %14 = load i64, ptr %4, align 8, !tbaa !14
  %15 = load i64, ptr @id_i_renegotiation_cb, align 8, !tbaa !14
  %16 = call i64 @rb_attr_get(i64 noundef %14, i64 noundef %15)
  store i64 %16, ptr %5, align 8, !tbaa !14
  %17 = load i64, ptr %5, align 8, !tbaa !14
  %18 = call zeroext i1 @RB_NIL_P(i64 noundef %17) #23
  br i1 %18, label %19, label %20

19:                                               ; preds = %1
  store i32 1, ptr %6, align 4
  br label %24

20:                                               ; preds = %1
  %21 = load i64, ptr %5, align 8, !tbaa !14
  %22 = load i64, ptr @id_call, align 8, !tbaa !14
  %23 = call i64 @rb_funcallv(i64 noundef %21, i64 noundef %22, i32 noundef 1, ptr noundef %3)
  store i32 0, ptr %6, align 4
  br label %24

24:                                               ; preds = %20, %19
  call void @llvm.lifetime.end.p0(i64 8, ptr %5) #20
  call void @llvm.lifetime.end.p0(i64 8, ptr %4) #20
  call void @llvm.lifetime.end.p0(i64 8, ptr %3) #20
  %25 = load i32, ptr %6, align 4
  switch i32 %25, label %27 [
    i32 0, label %26
    i32 1, label %26
  ]

26:                                               ; preds = %24, %24
  ret void

27:                                               ; preds = %24
  unreachable
}

; Function Attrs: nounwind sspstrong uwtable
define internal void @ssl_info_cb(ptr noundef %0, i32 noundef %1, i32 noundef %2) #0 {
  %4 = alloca ptr, align 8
  %5 = alloca i32, align 4
  %6 = alloca i32, align 4
  %7 = alloca i32, align 4
  store ptr %0, ptr %4, align 8, !tbaa !10
  store i32 %1, ptr %5, align 4, !tbaa !12
  store i32 %2, ptr %6, align 4, !tbaa !12
  call void @llvm.lifetime.start.p0(i64 4, ptr %7) #20
  %8 = load ptr, ptr %4, align 8, !tbaa !10
  %9 = call i32 @SSL_is_server(ptr noundef %8)
  store i32 %9, ptr %7, align 4, !tbaa !12
  %10 = load i32, ptr %7, align 4, !tbaa !12
  %11 = icmp ne i32 %10, 0
  br i1 %11, label %12, label %18

12:                                               ; preds = %3
  %13 = load i32, ptr %5, align 4, !tbaa !12
  %14 = and i32 %13, 16
  %15 = icmp ne i32 %14, 0
  br i1 %15, label %16, label %18

16:                                               ; preds = %12
  %17 = load ptr, ptr %4, align 8, !tbaa !10
  call void @ssl_renegotiation_cb(ptr noundef %17)
  br label %18

18:                                               ; preds = %16, %12, %3
  call void @llvm.lifetime.end.p0(i64 4, ptr %7) #20
  ret void
}