; Function Attrs: nounwind sspstrong uwtable
define internal void @ssl_info_cb(ptr noundef %0, i32 noundef %1, i32 %2) #0 {
  %4 = alloca i64, align 8
  %5 = tail call i32 @SSL_is_server(ptr noundef %0) #9
  %.not = icmp eq i32 %5, 0
  %6 = and i32 %1, 16
  %.not3 = icmp eq i32 %6, 0
  %or.cond = or i1 %.not3, %.not
  br i1 %or.cond, label %19, label %7

7:                                                ; preds = %3
  call void @llvm.lifetime.start.p0(i64 8, ptr nonnull %4) #9
  %8 = load i32, ptr @ossl_ssl_ex_ptr_idx, align 4, !tbaa !6
  %9 = tail call ptr @SSL_get_ex_data(ptr noundef %0, i32 noundef %8) #9
  %10 = ptrtoint ptr %9 to i64
  store i64 %10, ptr %4, align 8, !tbaa !10
  %11 = load i64, ptr @id_i_context, align 8, !tbaa !10
  %12 = tail call i64 @rb_attr_get(i64 noundef %10, i64 noundef %11) #9
  %13 = load i64, ptr @id_i_renegotiation_cb, align 8, !tbaa !10
  %14 = tail call i64 @rb_attr_get(i64 noundef %12, i64 noundef %13) #9
  %15 = icmp eq i64 %14, 4
  br i1 %15, label %ssl_renegotiation_cb.exit, label %16

16:                                               ; preds = %7
  %17 = load i64, ptr @id_call, align 8, !tbaa !10
  %18 = call i64 @rb_funcallv(i64 noundef %14, i64 noundef %17, i32 noundef 1, ptr noundef nonnull %4) #9
  br label %ssl_renegotiation_cb.exit

ssl_renegotiation_cb.exit:                        ; preds = %7, %16
  call void @llvm.lifetime.end.p0(i64 8, ptr nonnull %4) #9
  br label %19

19:                                               ; preds = %ssl_renegotiation_cb.exit, %3
  ret void
}